; Function Attrs: nounwind uwtable
define hidden range(i32 0, 44) i32 @Curl_connect_only_attach(ptr noundef %0) local_unnamed_addr #5 {
  %2 = alloca ptr, align 8
  call void @llvm.lifetime.start.p0(i64 8, ptr nonnull %2) #11
  store ptr null, ptr %2, align 8, !tbaa !131
  %.not.i = icmp eq ptr %0, null
  br i1 %.not.i, label %easy_connection.exit.thread, label %3

3:                                                ; preds = %1
  %4 = getelementptr inbounds nuw i8, ptr %0, i64 2658
  %5 = load i64, ptr %4, align 2
  %6 = and i64 %5, 1
  %.not8.i = icmp eq i64 %6, 0
  br i1 %.not8.i, label %.sink.split.i, label %7

7:                                                ; preds = %3
  %8 = call i32 @Curl_getconnectinfo(ptr noundef nonnull %0, ptr noundef nonnull %2) #11
  %9 = icmp eq i32 %8, -1
  br i1 %9, label %.sink.split.i, label %easy_connection.exit

.sink.split.i:                                    ; preds = %7, %3
  %.str.2.sink.i = phi ptr [ @.str.1, %3 ], [ @.str.2, %7 ]
  call void (ptr, ptr, ...) @Curl_failf(ptr noundef nonnull %0, ptr noundef nonnull %.str.2.sink.i) #11
  br label %easy_connection.exit.thread

easy_connection.exit:                             ; preds = %7
  %10 = getelementptr inbounds nuw i8, ptr %0, i64 24
  %11 = load ptr, ptr %10, align 8, !tbaa !82
  %.not6 = icmp eq ptr %11, null
  br i1 %.not6, label %12, label %easy_connection.exit.thread

12:                                               ; preds = %easy_connection.exit
  %13 = load ptr, ptr %2, align 8, !tbaa !131
  call void @Curl_attach_connection(ptr noundef nonnull %0, ptr noundef %13) #11
  br label %easy_connection.exit.thread

easy_connection.exit.thread:                      ; preds = %.sink.split.i, %1, %easy_connection.exit, %12
  %.0 = phi i32 [ 0, %12 ], [ 0, %easy_connection.exit ], [ 1, %.sink.split.i ], [ 43, %1 ]
  call void @llvm.lifetime.end.p0(i64 8, ptr nonnull %2) #11
  ret i32 %.0
}